#include <math.h>
#include <stdio.h>
#include <stdlib.h>
#include <string.h>

int num,s;
int reverse(int num)
{
    s=0;
    while(num!=0)
    {
    s=s*10+num-((int)(num/10))*10;
    num=num/10;
    }
    return s;
}

main()
{
    int x;
    for(int i=1;i<=6;i++)
    {
    scanf("%d",&x);
    if(x>=0)
    printf("%d\n",reverse(x));
    if(x<0)
    {x=(-1)*x;printf("%d\n",(-1)*reverse(x));}
    }
getchar();getchar();getchar();getchar();getchar();getchar();
}
